target datalayout = "e-m:e-p270:32:32-p271:32:32-p272:64:64-i64:64-i128:128-f80:128-n8:16:32:64-S128"
target triple = "x86_64-pc-linux-gnu"

%struct.re_pattern_buffer = type { ptr, i32, i32, i32, i32, i32, i32, i32, i32, i32, i32, i32, i32, i32, ptr, ptr, ptr, ptr, i32, i32, i32, i32, i64, i64, i32, ptr, ptr, [256 x i8], ptr, ptr, i64, i64, i64, ptr }
%struct._Node = type { %union.anon }
%union.anon = type { %struct.StrNode }
%struct.StrNode = type { %struct.NodeBase, ptr, ptr, i32, i32, [24 x i8] }
%struct.NodeBase = type { i32 }
%struct.OnigEncodingTypeST = type { ptr, ptr, i32, i32, ptr, ptr, ptr, ptr, ptr, ptr, ptr, ptr, ptr, ptr, ptr, ptr, ptr, i32, i32 }

; Function Attrs: nounwind sspstrong uwtable
define internal i32 @update_string_node_case_fold(ptr noundef %0, ptr noundef %1) #0 {
  %3 = alloca i32, align 4
  %4 = alloca ptr, align 8
  %5 = alloca ptr, align 8
  %6 = alloca ptr, align 8
  %7 = alloca ptr, align 8
  %8 = alloca [18 x i8], align 16
  %9 = alloca ptr, align 8
  %10 = alloca ptr, align 8
  %11 = alloca ptr, align 8
  %12 = alloca i32, align 4
  %13 = alloca i32, align 4
  %14 = alloca i32, align 4
  %15 = alloca i64, align 8
  %16 = alloca ptr, align 8
  %17 = alloca i32, align 4
  %18 = alloca ptr, align 8
  store ptr %0, ptr %4, align 8, !tbaa !21
  store ptr %1, ptr %5, align 8, !tbaa !66
  call void @llvm.lifetime.start.p0(i64 8, ptr %6) #11
  call void @llvm.lifetime.start.p0(i64 8, ptr %7) #11
  call void @llvm.lifetime.start.p0(i64 18, ptr %8) #11
  call void @llvm.lifetime.start.p0(i64 8, ptr %9) #11
  call void @llvm.lifetime.start.p0(i64 8, ptr %10) #11
  call void @llvm.lifetime.start.p0(i64 8, ptr %11) #11
  call void @llvm.lifetime.start.p0(i64 4, ptr %12) #11
  call void @llvm.lifetime.start.p0(i64 4, ptr %13) #11
  call void @llvm.lifetime.start.p0(i64 4, ptr %14) #11
  call void @llvm.lifetime.start.p0(i64 8, ptr %15) #11
  call void @llvm.lifetime.start.p0(i64 8, ptr %16) #11
  %19 = load ptr, ptr %5, align 8, !tbaa !66
  %20 = getelementptr inbounds nuw %struct._Node, ptr %19, i32 0, i32 0
  store ptr %20, ptr %16, align 8, !tbaa !36
  %21 = load ptr, ptr %16, align 8, !tbaa !36
  %22 = getelementptr inbounds nuw %struct.StrNode, ptr %21, i32 0, i32 2
  %23 = load ptr, ptr %22, align 8, !tbaa !130
  store ptr %23, ptr %7, align 8, !tbaa !35
  %24 = load ptr, ptr %7, align 8, !tbaa !35
  %25 = load ptr, ptr %16, align 8, !tbaa !36
  %26 = getelementptr inbounds nuw %struct.StrNode, ptr %25, i32 0, i32 1
  %27 = load ptr, ptr %26, align 8, !tbaa !128
  %28 = ptrtoint ptr %24 to i64
  %29 = ptrtoint ptr %27 to i64
  %30 = sub i64 %28, %29
  %31 = mul i64 %30, 2
  store i64 %31, ptr %15, align 8, !tbaa !14
  %32 = load i64, ptr %15, align 8, !tbaa !14
  %33 = call noalias ptr @malloc(i64 noundef %32) #10
  store ptr %33, ptr %9, align 8, !tbaa !35
  %34 = load ptr, ptr %9, align 8, !tbaa !35
  %35 = icmp eq ptr %34, null
  br i1 %35, label %36, label %37

36:                                               ; preds = %2
  store i32 -5, ptr %3, align 4
  store i32 1, ptr %17, align 4
  br label %112

37:                                               ; preds = %2
  %38 = load ptr, ptr %9, align 8, !tbaa !35
  %39 = load i64, ptr %15, align 8, !tbaa !14
  %40 = getelementptr i8, ptr %38, i64 %39
  store ptr %40, ptr %10, align 8, !tbaa !35
  %41 = load ptr, ptr %9, align 8, !tbaa !35
  store ptr %41, ptr %11, align 8, !tbaa !35
  %42 = load ptr, ptr %16, align 8, !tbaa !36
  %43 = getelementptr inbounds nuw %struct.StrNode, ptr %42, i32 0, i32 1
  %44 = load ptr, ptr %43, align 8, !tbaa !128
  store ptr %44, ptr %6, align 8, !tbaa !35
  br label %45

45:                                               ; preds = %104, %37
  %46 = load ptr, ptr %6, align 8, !tbaa !35
  %47 = load ptr, ptr %7, align 8, !tbaa !35
  %48 = icmp ult ptr %46, %47
  br i1 %48, label %49, label %105

49:                                               ; preds = %45
  %50 = load ptr, ptr %4, align 8, !tbaa !21
  %51 = getelementptr inbounds nuw %struct.re_pattern_buffer, ptr %50, i32 0, i32 15
  %52 = load ptr, ptr %51, align 8, !tbaa !142
  %53 = getelementptr inbounds nuw %struct.OnigEncodingTypeST, ptr %52, i32 0, i32 8
  %54 = load ptr, ptr %53, align 8, !tbaa !222
  %55 = load ptr, ptr %4, align 8, !tbaa !21
  %56 = getelementptr inbounds nuw %struct.re_pattern_buffer, ptr %55, i32 0, i32 18
  %57 = load i32, ptr %56, align 8, !tbaa !147
  %58 = load ptr, ptr %7, align 8, !tbaa !35
  %59 = getelementptr inbounds [18 x i8], ptr %8, i64 0, i64 0
  %60 = load ptr, ptr %4, align 8, !tbaa !21
  %61 = getelementptr inbounds nuw %struct.re_pattern_buffer, ptr %60, i32 0, i32 15
  %62 = load ptr, ptr %61, align 8, !tbaa !142
  %63 = call i32 %54(i32 noundef %57, ptr noundef %6, ptr noundef %58, ptr noundef %59, ptr noundef %62)
  store i32 %63, ptr %14, align 4, !tbaa !7
  store i32 0, ptr %13, align 4, !tbaa !7
  br label %64

64:                                               ; preds = %101, %49
  %65 = load i32, ptr %13, align 4, !tbaa !7
  %66 = load i32, ptr %14, align 4, !tbaa !7
  %67 = icmp slt i32 %65, %66
  br i1 %67, label %68, label %104

68:                                               ; preds = %64
  %69 = load ptr, ptr %11, align 8, !tbaa !35
  %70 = load ptr, ptr %10, align 8, !tbaa !35
  %71 = icmp uge ptr %69, %70
  br i1 %71, label %72, label %94

72:                                               ; preds = %68
  call void @llvm.lifetime.start.p0(i64 8, ptr %18) #11
  %73 = load ptr, ptr %9, align 8, !tbaa !35
  %74 = load i64, ptr %15, align 8, !tbaa !14
  %75 = mul i64 %74, 2
  %76 = call ptr @realloc(ptr noundef %73, i64 noundef %75) #12
  store ptr %76, ptr %18, align 8, !tbaa !35
  %77 = load ptr, ptr %18, align 8, !tbaa !35
  %78 = icmp eq ptr %77, null
  br i1 %78, label %79, label %81

79:                                               ; preds = %72
  %80 = load ptr, ptr %9, align 8, !tbaa !35
  call void @free(ptr noundef %80) #11
  store i32 -5, ptr %3, align 4
  store i32 1, ptr %17, align 4
  br label %91

81:                                               ; preds = %72
  %82 = load ptr, ptr %18, align 8, !tbaa !35
  store ptr %82, ptr %9, align 8, !tbaa !35
  %83 = load ptr, ptr %9, align 8, !tbaa !35
  %84 = load i64, ptr %15, align 8, !tbaa !14
  %85 = getelementptr i8, ptr %83, i64 %84
  store ptr %85, ptr %11, align 8, !tbaa !35
  %86 = load i64, ptr %15, align 8, !tbaa !14
  %87 = mul i64 %86, 2
  store i64 %87, ptr %15, align 8, !tbaa !14
  %88 = load ptr, ptr %9, align 8, !tbaa !35
  %89 = load i64, ptr %15, align 8, !tbaa !14
  %90 = getelementptr i8, ptr %88, i64 %89
  store ptr %90, ptr %10, align 8, !tbaa !35
  store i32 0, ptr %17, align 4
  br label %91

91:                                               ; preds = %81, %79
  call void @llvm.lifetime.end.p0(i64 8, ptr %18) #11
  %92 = load i32, ptr %17, align 4
  switch i32 %92, label %112 [
    i32 0, label %93
  ]

93:                                               ; preds = %91
  br label %94

94:                                               ; preds = %93, %68
  %95 = load i32, ptr %13, align 4, !tbaa !7
  %96 = sext i32 %95 to i64
  %97 = getelementptr [18 x i8], ptr %8, i64 0, i64 %96
  %98 = load i8, ptr %97, align 1, !tbaa !38
  %99 = load ptr, ptr %11, align 8, !tbaa !35
  %100 = getelementptr i8, ptr %99, i32 1
  store ptr %100, ptr %11, align 8, !tbaa !35
  store i8 %98, ptr %99, align 1, !tbaa !38
  br label %101

101:                                              ; preds = %94
  %102 = load i32, ptr %13, align 4, !tbaa !7
  %103 = add i32 %102, 1
  store i32 %103, ptr %13, align 4, !tbaa !7
  br label %64, !llvm.loop !223

104:                                              ; preds = %64
  br label %45, !llvm.loop !224

105:                                              ; preds = %45
  %106 = load ptr, ptr %5, align 8, !tbaa !66
  %107 = load ptr, ptr %9, align 8, !tbaa !35
  %108 = load ptr, ptr %11, align 8, !tbaa !35
  %109 = call i32 @onig_node_str_set(ptr noundef %106, ptr noundef %107, ptr noundef %108)
  store i32 %109, ptr %12, align 4, !tbaa !7
  %110 = load ptr, ptr %9, align 8, !tbaa !35
  call void @free(ptr noundef %110) #11
  %111 = load i32, ptr %12, align 4, !tbaa !7
  store i32 %111, ptr %3, align 4
  store i32 1, ptr %17, align 4
  br label %112

112:                                              ; preds = %105, %91, %36
  call void @llvm.lifetime.end.p0(i64 8, ptr %16) #11
  call void @llvm.lifetime.end.p0(i64 8, ptr %15) #11
  call void @llvm.lifetime.end.p0(i64 4, ptr %14) #11
  call void @llvm.lifetime.end.p0(i64 4, ptr %13) #11
  call void @llvm.lifetime.end.p0(i64 4, ptr %12) #11
  call void @llvm.lifetime.end.p0(i64 8, ptr %11) #11
  call void @llvm.lifetime.end.p0(i64 8, ptr %10) #11
  call void @llvm.lifetime.end.p0(i64 8, ptr %9) #11
  call void @llvm.lifetime.end.p0(i64 18, ptr %8) #11
  call void @llvm.lifetime.end.p0(i64 8, ptr %7) #11
  call void @llvm.lifetime.end.p0(i64 8, ptr %6) #11
  %113 = load i32, ptr %3, align 4
  ret i32 %113
}