; Function Attrs: nounwind sspstrong uwtable
define internal fastcc i32 @update_string_node_case_fold(ptr noundef readonly captures(none) %0, ptr noundef nonnull %1) unnamed_addr #4 {
  %3 = alloca ptr, align 8
  %4 = alloca [18 x i8], align 16
  call void @llvm.lifetime.start.p0(i64 8, ptr nonnull %3) #20
  call void @llvm.lifetime.start.p0(i64 18, ptr nonnull %4) #20
  %5 = getelementptr inbounds nuw i8, ptr %1, i64 16
  %6 = load ptr, ptr %5, align 8, !tbaa !157
  %7 = getelementptr inbounds nuw i8, ptr %1, i64 8
  %8 = load ptr, ptr %7, align 8, !tbaa !155
  %9 = ptrtoint ptr %6 to i64
  %10 = ptrtoint ptr %8 to i64
  %11 = sub i64 %9, %10
  %12 = shl i64 %11, 1
  %13 = tail call noalias ptr @malloc(i64 noundef %12) #19
  %14 = icmp eq ptr %13, null
  br i1 %14, label %40, label %15

15:                                               ; preds = %2
  store ptr %8, ptr %3, align 8, !tbaa !30
  %16 = icmp ult ptr %8, %6
  br i1 %16, label %.lr.ph82, label %._crit_edge

.lr.ph82:                                         ; preds = %15
  %17 = getelementptr i8, ptr %13, i64 %12
  %18 = getelementptr inbounds nuw i8, ptr %0, i64 72
  %19 = getelementptr inbounds nuw i8, ptr %0, i64 96
  br label %22

.loopexit:                                        ; preds = %35, %22
  %.153.lcssa = phi ptr [ %.05278, %22 ], [ %38, %35 ]
  %.148.lcssa = phi ptr [ %.04779, %22 ], [ %.249, %35 ]
  %.144.lcssa = phi i64 [ %.04380, %22 ], [ %.245, %35 ]
  %.140.lcssa = phi ptr [ %.03981, %22 ], [ %.241, %35 ]
  %20 = load ptr, ptr %3, align 8, !tbaa !30
  %21 = icmp ult ptr %20, %6
  br i1 %21, label %22, label %._crit_edge, !llvm.loop !245

22:                                               ; preds = %.lr.ph82, %.loopexit
  %.03981 = phi ptr [ %13, %.lr.ph82 ], [ %.140.lcssa, %.loopexit ]
  %.04380 = phi i64 [ %12, %.lr.ph82 ], [ %.144.lcssa, %.loopexit ]
  %.04779 = phi ptr [ %17, %.lr.ph82 ], [ %.148.lcssa, %.loopexit ]
  %.05278 = phi ptr [ %13, %.lr.ph82 ], [ %.153.lcssa, %.loopexit ]
  %23 = load ptr, ptr %18, align 8, !tbaa !73
  %24 = getelementptr inbounds nuw i8, ptr %23, i64 56
  %25 = load ptr, ptr %24, align 8, !tbaa !246
  %26 = load i32, ptr %19, align 8, !tbaa !78
  %27 = call i32 %25(i32 noundef %26, ptr noundef nonnull %3, ptr noundef nonnull %6, ptr noundef nonnull %4, ptr noundef %23) #20
  %28 = icmp sgt i32 %27, 0
  br i1 %28, label %.lr.ph.preheader, label %.loopexit

.lr.ph.preheader:                                 ; preds = %22
  %wide.trip.count = zext nneg i32 %27 to i64
  br label %.lr.ph

.lr.ph:                                           ; preds = %.lr.ph.preheader, %35
  %indvars.iv = phi i64 [ 0, %.lr.ph.preheader ], [ %indvars.iv.next, %35 ]
  %.14074 = phi ptr [ %.03981, %.lr.ph.preheader ], [ %.241, %35 ]
  %.14473 = phi i64 [ %.04380, %.lr.ph.preheader ], [ %.245, %35 ]
  %.14872 = phi ptr [ %.04779, %.lr.ph.preheader ], [ %.249, %35 ]
  %.15370 = phi ptr [ %.05278, %.lr.ph.preheader ], [ %38, %35 ]
  %.not = icmp ult ptr %.15370, %.14872
  br i1 %.not, label %35, label %29

29:                                               ; preds = %.lr.ph
  %30 = shl i64 %.14473, 1
  %31 = call ptr @realloc(ptr noundef %.14074, i64 noundef %30) #21
  %.not59 = icmp eq ptr %31, null
  br i1 %.not59, label %.sink.split, label %32

32:                                               ; preds = %29
  %33 = getelementptr i8, ptr %31, i64 %.14473
  %34 = getelementptr i8, ptr %31, i64 %30
  br label %35

35:                                               ; preds = %32, %.lr.ph
  %.254 = phi ptr [ %33, %32 ], [ %.15370, %.lr.ph ]
  %.249 = phi ptr [ %34, %32 ], [ %.14872, %.lr.ph ]
  %.245 = phi i64 [ %30, %32 ], [ %.14473, %.lr.ph ]
  %.241 = phi ptr [ %31, %32 ], [ %.14074, %.lr.ph ]
  %36 = getelementptr [18 x i8], ptr %4, i64 0, i64 %indvars.iv
  %37 = load i8, ptr %36, align 1, !tbaa !34
  %38 = getelementptr i8, ptr %.254, i64 1
  store i8 %37, ptr %.254, align 1, !tbaa !34
  %indvars.iv.next = add nuw nsw i64 %indvars.iv, 1
  %exitcond.not = icmp eq i64 %indvars.iv.next, %wide.trip.count
  br i1 %exitcond.not, label %.loopexit, label %.lr.ph, !llvm.loop !247

._crit_edge:                                      ; preds = %.loopexit, %15
  %.052.lcssa = phi ptr [ %13, %15 ], [ %.153.lcssa, %.loopexit ]
  %.039.lcssa = phi ptr [ %13, %15 ], [ %.140.lcssa, %.loopexit ]
  %39 = call i32 @onig_node_str_set(ptr noundef nonnull %1, ptr noundef %.039.lcssa, ptr noundef %.052.lcssa) #20
  br label %.sink.split

.sink.split:                                      ; preds = %29, %._crit_edge
  %.14074.lcssa.sink = phi ptr [ %.039.lcssa, %._crit_edge ], [ %.14074, %29 ]
  %.0.ph = phi i32 [ %39, %._crit_edge ], [ -5, %29 ]
  call void @free(ptr noundef %.14074.lcssa.sink) #20
  br label %40

40:                                               ; preds = %.sink.split, %2
  %.0 = phi i32 [ -5, %2 ], [ %.0.ph, %.sink.split ]
  call void @llvm.lifetime.end.p0(i64 18, ptr nonnull %4) #20
  call void @llvm.lifetime.end.p0(i64 8, ptr nonnull %3) #20
  ret i32 %.0
}